; Function Attrs: nofree norecurse nosync nounwind memory(read, inaccessiblemem: none) uwtable
define range(i32 -2147483648, 2147483647) i32 @Io_ReadFindCoId(ptr noundef readonly captures(none) %0, ptr noundef readnone %1) local_unnamed_addr #6 {
  %3 = getelementptr i8, ptr %0, i64 48
  %.val = load ptr, ptr %3, align 8, !tbaa !81
  %4 = getelementptr i8, ptr %.val, i64 4
  %.val.val = load i32, ptr %4, align 4, !tbaa !20
  %5 = icmp sgt i32 %.val.val, 0
  br i1 %5, label %.lr.ph, label %.critedge

.lr.ph:                                           ; preds = %2
  %6 = getelementptr i8, ptr %.val, i64 8
  %.val9.val = load ptr, ptr %6, align 8, !tbaa !23
  %wide.trip.count = zext nneg i32 %.val.val to i64
  br label %7

7:                                                ; preds = %.lr.ph, %11
  %indvars.iv = phi i64 [ 0, %.lr.ph ], [ %indvars.iv.next, %11 ]
  %8 = getelementptr inbounds nuw ptr, ptr %.val9.val, i64 %indvars.iv
  %9 = load ptr, ptr %8, align 8, !tbaa !40
  %10 = icmp eq ptr %9, %1
  br i1 %10, label %.critedge.loopexit.split.loop.exit14, label %11

11:                                               ; preds = %7
  %indvars.iv.next = add nuw nsw i64 %indvars.iv, 1
  %exitcond.not = icmp eq i64 %indvars.iv.next, %wide.trip.count
  br i1 %exitcond.not, label %.critedge, label %7, !llvm.loop !82

.critedge.loopexit.split.loop.exit14:             ; preds = %7
  %12 = trunc nuw nsw i64 %indvars.iv to i32
  br label %.critedge

.critedge:                                        ; preds = %11, %.critedge.loopexit.split.loop.exit14, %2
  %.08 = phi i32 [ -1, %2 ], [ %12, %.critedge.loopexit.split.loop.exit14 ], [ -1, %11 ]
  ret i32 %.08
}